target datalayout = "e-m:e-p270:32:32-p271:32:32-p272:64:64-i64:64-i128:128-f80:128-n8:16:32:64-S128"
target triple = "x86_64-pc-linux-gnu"

%class.EditPickPointsPlugin = type <{ %class.QObject, %class.EditTool, %class.QPoint, i8, i8, [6 x i8], ptr, ptr, ptr, i32, [4 x i8] }>
%class.QObject = type { ptr, %class.QScopedPointer }
%class.QScopedPointer = type { ptr }
%class.EditTool = type { %class.MeshLabPluginLogger }
%class.MeshLabPluginLogger = type { ptr, ptr }
%class.QPoint = type { i32, i32 }

@_ZTV20EditPickPointsPlugin = external unnamed_addr constant { [20 x ptr], [20 x ptr] }, align 8

; Function Attrs: mustprogress nounwind uwtable
define linkonce_odr void @_ZN19MeshLabPluginLoggerD2Ev(ptr noundef nonnull align 8 dereferenceable(16) %0) unnamed_addr #4 comdat align 2 {
  %2 = alloca ptr, align 8
  store ptr %0, ptr %2, align 8
  ret void
}

; Function Attrs: mustprogress nounwind uwtable
define linkonce_odr void @_ZN8EditToolD2Ev(ptr noundef nonnull align 8 dereferenceable(16) %0) unnamed_addr #4 comdat align 2 {
  %2 = alloca ptr, align 8
  store ptr %0, ptr %2, align 8
  %3 = load ptr, ptr %2, align 8
  call void @_ZN19MeshLabPluginLoggerD2Ev(ptr noundef nonnull align 8 dereferenceable(16) %3) #3
  ret void
}

; Function Attrs: mustprogress nounwind uwtable
define linkonce_odr void @_ZN6QPointC2Ev(ptr noundef nonnull align 4 dereferenceable(8) %0) unnamed_addr #4 comdat align 2 {
  %2 = alloca ptr, align 8
  store ptr %0, ptr %2, align 8
  %3 = load ptr, ptr %2, align 8
  %4 = getelementptr inbounds %class.QPoint, ptr %3, i32 0, i32 0
  store i32 0, ptr %4, align 4
  %5 = getelementptr inbounds %class.QPoint, ptr %3, i32 0, i32 1
  store i32 0, ptr %5, align 4
  ret void
}

; Function Attrs: mustprogress uwtable
define linkonce_odr void @_ZN8EditToolC2Ev(ptr noundef nonnull align 8 dereferenceable(16) %0) unnamed_addr #5 comdat align 2 {
  %2 = alloca ptr, align 8
  store ptr %0, ptr %2, align 8
  %3 = load ptr, ptr %2, align 8
  call void @_ZN19MeshLabPluginLoggerC2Ev(ptr noundef nonnull align 8 dereferenceable(16) %3)
  store ptr getelementptr inbounds ({ [20 x ptr] }, ptr @_ZTV8EditTool, i32 0, i32 0, i32 2), ptr %3, align 8
  ret void
}

; Function Attrs: mustprogress uwtable
define void @_ZN20EditPickPointsPluginC2Ev(ptr noundef nonnull align 8 dereferenceable(76) %0) unnamed_addr #5 align 2 personality ptr @__gxx_personality_v0 {
  %2 = alloca ptr, align 8
  %3 = alloca ptr, align 8
  %4 = alloca i32, align 4
  store ptr %0, ptr %2, align 8
  %5 = load ptr, ptr %2, align 8
  call void @_ZN7QObjectC2EPS_(ptr noundef nonnull align 8 dereferenceable(16) %5, ptr noundef null)
  %6 = getelementptr inbounds i8, ptr %5, i64 16
  invoke void @_ZN8EditToolC2Ev(ptr noundef nonnull align 8 dereferenceable(16) %6)
          to label %7 unwind label %16

7:                                                ; preds = %1
  store ptr getelementptr inbounds ({ [20 x ptr], [20 x ptr] }, ptr @_ZTV20EditPickPointsPlugin, i32 0, i32 0, i32 2), ptr %5, align 8
  %8 = getelementptr inbounds i8, ptr %5, i64 16
  store ptr getelementptr inbounds ({ [20 x ptr], [20 x ptr] }, ptr @_ZTV20EditPickPointsPlugin, i32 0, i32 1, i32 2), ptr %8, align 8
  %9 = getelementptr inbounds %class.EditPickPointsPlugin, ptr %5, i32 0, i32 2
  invoke void @_ZN6QPointC2Ev(ptr noundef nonnull align 4 dereferenceable(8) %9)
          to label %10 unwind label %20

10:                                               ; preds = %7
  %11 = getelementptr inbounds %class.EditPickPointsPlugin, ptr %5, i32 0, i32 3
  store i8 0, ptr %11, align 8
  %12 = getelementptr inbounds %class.EditPickPointsPlugin, ptr %5, i32 0, i32 4
  store i8 0, ptr %12, align 1
  %13 = getelementptr inbounds %class.EditPickPointsPlugin, ptr %5, i32 0, i32 6
  store ptr null, ptr %13, align 8
  %14 = getelementptr inbounds %class.EditPickPointsPlugin, ptr %5, i32 0, i32 8
  store ptr null, ptr %14, align 8
  %15 = getelementptr inbounds %class.EditPickPointsPlugin, ptr %5, i32 0, i32 9
  store i32 0, ptr %15, align 8
  ret void

16:                                               ; preds = %1
  %17 = landingpad { ptr, i32 }
          cleanup
  %18 = extractvalue { ptr, i32 } %17, 0
  store ptr %18, ptr %3, align 8
  %19 = extractvalue { ptr, i32 } %17, 1
  store i32 %19, ptr %4, align 4
  br label %25

20:                                               ; preds = %7
  %21 = landingpad { ptr, i32 }
          cleanup
  %22 = extractvalue { ptr, i32 } %21, 0
  store ptr %22, ptr %3, align 8
  %23 = extractvalue { ptr, i32 } %21, 1
  store i32 %23, ptr %4, align 4
  %24 = getelementptr inbounds i8, ptr %5, i64 16
  call void @_ZN8EditToolD2Ev(ptr noundef nonnull align 8 dereferenceable(16) %24) #3
  br label %25

25:                                               ; preds = %20, %16
  call void @_ZN7QObjectD2Ev(ptr noundef nonnull align 8 dereferenceable(16) %5) #3
  br label %26

26:                                               ; preds = %25
  %27 = load ptr, ptr %3, align 8
  %28 = load i32, ptr %4, align 4
  %29 = insertvalue { ptr, i32 } poison, ptr %27, 0
  %30 = insertvalue { ptr, i32 } %29, i32 %28, 1
  resume { ptr, i32 } %30
}