; Function Attrs: mustprogress uwtable
define void @_ZN20EditPickPointsPluginC2Ev(ptr noundef nonnull align 8 dereferenceable(76) %0) unnamed_addr #9 align 2 personality ptr @__gxx_personality_v0 {
  tail call void @_ZN7QObjectC2EPS_(ptr noundef nonnull align 8 dereferenceable(16) %0, ptr noundef null)
  %2 = getelementptr inbounds i8, ptr %0, i64 16
  invoke void @_ZN19MeshLabPluginLoggerC2Ev(ptr noundef nonnull align 8 dereferenceable(16) %2)
          to label %3 unwind label %8

3:                                                ; preds = %1
  store ptr getelementptr inbounds ({ [20 x ptr], [20 x ptr] }, ptr @_ZTV20EditPickPointsPlugin, i64 0, i32 0, i64 2), ptr %0, align 8
  store ptr getelementptr inbounds ({ [20 x ptr], [20 x ptr] }, ptr @_ZTV20EditPickPointsPlugin, i64 0, i32 1, i64 2), ptr %2, align 8
  %4 = getelementptr inbounds i8, ptr %0, i64 32
  %5 = getelementptr inbounds i8, ptr %0, i64 48
  store ptr null, ptr %5, align 8
  %6 = getelementptr inbounds i8, ptr %0, i64 64
  store ptr null, ptr %6, align 8
  %7 = getelementptr inbounds i8, ptr %0, i64 72
  store i32 0, ptr %7, align 8
  tail call void @llvm.memset.p0.i64(ptr noundef nonnull align 8 dereferenceable(10) %4, i8 0, i64 10, i1 false)
  ret void

8:                                                ; preds = %1
  %9 = landingpad { ptr, i32 }
          cleanup
  tail call void @_ZN7QObjectD2Ev(ptr noundef nonnull align 8 dereferenceable(16) %0) #23
  resume { ptr, i32 } %9
}